target datalayout = "e-m:e-p270:32:32-p271:32:32-p272:64:64-i64:64-i128:128-f80:128-n8:16:32:64-S128"
target triple = "x86_64-pc-linux-gnu"

@.str.4 = private unnamed_addr constant [15 x i8] c"NES Controller\00", align 1
@.str.5 = private unnamed_addr constant [15 x i8] c"HVC Controller\00", align 1

; Function Attrs: nounwind uwtable
define internal zeroext i1 @HIDAPI_DriverNintendoClassic_IsSupportedDevice(ptr noundef %0, ptr noundef %1, i32 noundef %2, i16 noundef zeroext %3, i16 noundef zeroext %4, i16 noundef zeroext %5, i32 noundef %6, i32 noundef %7, i32 noundef %8, i32 noundef %9) #0 {
  %11 = alloca i1, align 1
  %12 = alloca ptr, align 8
  %13 = alloca ptr, align 8
  %14 = alloca i32, align 4
  %15 = alloca i16, align 2
  %16 = alloca i16, align 2
  %17 = alloca i16, align 2
  %18 = alloca i32, align 4
  %19 = alloca i32, align 4
  %20 = alloca i32, align 4
  %21 = alloca i32, align 4
  store ptr %0, ptr %12, align 8
  store ptr %1, ptr %13, align 8
  store i32 %2, ptr %14, align 4
  store i16 %3, ptr %15, align 2
  store i16 %4, ptr %16, align 2
  store i16 %5, ptr %17, align 2
  store i32 %6, ptr %18, align 4
  store i32 %7, ptr %19, align 4
  store i32 %8, ptr %20, align 4
  store i32 %9, ptr %21, align 4
  %22 = load i16, ptr %15, align 2
  %23 = zext i16 %22 to i32
  %24 = icmp eq i32 %23, 1406
  br i1 %24, label %25, label %55

25:                                               ; preds = %10
  %26 = load i16, ptr %16, align 2
  %27 = zext i16 %26 to i32
  %28 = icmp eq i32 %27, 8199
  br i1 %28, label %29, label %39

29:                                               ; preds = %25
  %30 = load ptr, ptr %13, align 8
  %31 = call i32 @SDL_strncmp_REAL(ptr noundef %30, ptr noundef @.str.4, i64 noundef 14)
  %32 = icmp eq i32 %31, 0
  br i1 %32, label %37, label %33

33:                                               ; preds = %29
  %34 = load ptr, ptr %13, align 8
  %35 = call i32 @SDL_strncmp_REAL(ptr noundef %34, ptr noundef @.str.5, i64 noundef 14)
  %36 = icmp eq i32 %35, 0
  br i1 %36, label %37, label %38

37:                                               ; preds = %33, %29
  store i1 true, ptr %11, align 1
  br label %56

38:                                               ; preds = %33
  br label %39

39:                                               ; preds = %38, %25
  %40 = load i16, ptr %16, align 2
  %41 = zext i16 %40 to i32
  %42 = icmp eq i32 %41, 8217
  br i1 %42, label %43, label %44

43:                                               ; preds = %39
  store i1 true, ptr %11, align 1
  br label %56

44:                                               ; preds = %39
  %45 = load i16, ptr %16, align 2
  %46 = zext i16 %45 to i32
  %47 = icmp eq i32 %46, 8222
  br i1 %47, label %48, label %49

48:                                               ; preds = %44
  store i1 true, ptr %11, align 1
  br label %56

49:                                               ; preds = %44
  %50 = load i16, ptr %16, align 2
  %51 = zext i16 %50 to i32
  %52 = icmp eq i32 %51, 8215
  br i1 %52, label %53, label %54

53:                                               ; preds = %49
  store i1 true, ptr %11, align 1
  br label %56

54:                                               ; preds = %49
  br label %55

55:                                               ; preds = %54, %10
  store i1 false, ptr %11, align 1
  br label %56

56:                                               ; preds = %55, %53, %48, %43, %37
  %57 = load i1, ptr %11, align 1
  ret i1 %57
}