; Function Attrs: nounwind uwtable
define internal noundef zeroext i1 @HIDAPI_DriverNintendoClassic_IsSupportedDevice(ptr readnone captures(none) %0, ptr noundef %1, i32 %2, i16 noundef zeroext %3, i16 noundef zeroext %4, i16 zeroext %5, i32 %6, i32 %7, i32 %8, i32 %9) #0 {
  %11 = icmp eq i16 %3, 1406
  br i1 %11, label %12, label %19

12:                                               ; preds = %10
  switch i16 %4, label %19 [
    i16 8199, label %13
    i16 8217, label %20
    i16 8222, label %20
    i16 8215, label %20
  ]

13:                                               ; preds = %12
  %14 = tail call i32 @SDL_strncmp_REAL(ptr noundef %1, ptr noundef nonnull @.str.4, i64 noundef 14) #9
  %15 = icmp eq i32 %14, 0
  br i1 %15, label %20, label %16

16:                                               ; preds = %13
  %17 = tail call i32 @SDL_strncmp_REAL(ptr noundef %1, ptr noundef nonnull @.str.5, i64 noundef 14) #9
  %18 = icmp eq i32 %17, 0
  br i1 %18, label %20, label %19

19:                                               ; preds = %16, %12, %10
  br label %20

20:                                               ; preds = %12, %12, %12, %13, %16, %19
  %.0 = phi i1 [ false, %19 ], [ true, %16 ], [ true, %13 ], [ true, %12 ], [ true, %12 ], [ true, %12 ]
  ret i1 %.0
}